target datalayout = "e-m:e-p270:32:32-p271:32:32-p272:64:64-i64:64-i128:128-f80:128-n8:16:32:64-S128"
target triple = "x86_64-pc-linux-gnu"

%struct._object = type { %union.anon, ptr }
%union.anon = type { i64 }
%struct.SHA3object = type { %struct._object, i8, %struct.PyMutex, ptr }
%struct.PyMutex = type { i8 }
%struct._typeobject = type { %struct.PyVarObject, ptr, i64, i64, ptr, i64, ptr, ptr, ptr, ptr, ptr, ptr, ptr, ptr, ptr, ptr, ptr, ptr, ptr, i64, ptr, ptr, ptr, ptr, i64, ptr, ptr, ptr, ptr, ptr, ptr, ptr, ptr, ptr, i64, ptr, ptr, ptr, ptr, ptr, ptr, ptr, ptr, ptr, ptr, ptr, i32, ptr, ptr, i8, i16 }
%struct.PyVarObject = type { %struct._object, i64 }
%struct.Py_buffer = type { ptr, ptr, i64, i64, i32, i32, ptr, ptr, ptr, ptr, ptr }

@PyExc_TypeError = external global ptr, align 8
@.str.12 = private unnamed_addr constant [39 x i8] c"Strings must be encoded before hashing\00", align 1
@.str.13 = private unnamed_addr constant [42 x i8] c"object supporting the buffer API required\00", align 1
@PyExc_BufferError = external global ptr, align 8
@.str.14 = private unnamed_addr constant [32 x i8] c"Buffer must be single dimension\00", align 1
@_Py_NoneStruct = external global %struct._object, align 8

; Function Attrs: inlinehint nounwind uwtable
define internal i32 @_Py_atomic_compare_exchange_uint8(ptr noundef %0, ptr noundef %1, i8 noundef zeroext %2) #3 {
  %4 = alloca ptr, align 8
  %5 = alloca ptr, align 8
  %6 = alloca i8, align 1
  %7 = alloca i8, align 1
  %8 = alloca i8, align 1
  store ptr %0, ptr %4, align 8, !tbaa !56
  store ptr %1, ptr %5, align 8, !tbaa !56
  store i8 %2, ptr %6, align 1, !tbaa !41
  %9 = load ptr, ptr %4, align 8, !tbaa !56
  %10 = load ptr, ptr %5, align 8, !tbaa !56
  %11 = load i8, ptr %6, align 1, !tbaa !41
  store i8 %11, ptr %7, align 1, !tbaa !41
  %12 = load i8, ptr %10, align 1
  %13 = load i8, ptr %7, align 1
  %14 = cmpxchg ptr %9, i8 %12, i8 %13 seq_cst seq_cst, align 1
  %15 = extractvalue { i8, i1 } %14, 0
  %16 = extractvalue { i8, i1 } %14, 1
  br i1 %16, label %18, label %17

17:                                               ; preds = %3
  store i8 %15, ptr %10, align 1
  br label %18

18:                                               ; preds = %17, %3
  %19 = zext i1 %16 to i8
  store i8 %19, ptr %8, align 1, !tbaa !57
  %20 = load i8, ptr %8, align 1, !tbaa !57, !range !46, !noundef !47
  %21 = trunc i8 %20 to i1
  %22 = zext i1 %21 to i32
  ret i32 %22
}

; Function Attrs: inlinehint nounwind uwtable
define internal void @_PyMutex_Unlock(ptr noundef %0) #3 {
  %2 = alloca ptr, align 8
  %3 = alloca i8, align 1
  store ptr %0, ptr %2, align 8, !tbaa !54
  call void @llvm.lifetime.start.p0(i64 1, ptr %3) #7
  store i8 1, ptr %3, align 1, !tbaa !41
  %4 = load ptr, ptr %2, align 8, !tbaa !54
  %5 = getelementptr inbounds nuw %struct.PyMutex, ptr %4, i32 0, i32 0
  %6 = call i32 @_Py_atomic_compare_exchange_uint8(ptr noundef %5, ptr noundef %3, i8 noundef zeroext 0)
  %7 = icmp ne i32 %6, 0
  br i1 %7, label %10, label %8

8:                                                ; preds = %1
  %9 = load ptr, ptr %2, align 8, !tbaa !54
  call void @PyMutex_Unlock(ptr noundef %9)
  br label %10

10:                                               ; preds = %8, %1
  call void @llvm.lifetime.end.p0(i64 1, ptr %3) #7
  ret void
}

; Function Attrs: nounwind uwtable
define internal void @sha3_update(ptr noundef %0, ptr noundef %1, i64 noundef %2) #0 {
  %4 = alloca ptr, align 8
  %5 = alloca ptr, align 8
  %6 = alloca i64, align 8
  store ptr %0, ptr %4, align 8, !tbaa !59
  store ptr %1, ptr %5, align 8, !tbaa !56
  store i64 %2, ptr %6, align 8, !tbaa !37
  br label %7

7:                                                ; preds = %10, %3
  %8 = load i64, ptr %6, align 8, !tbaa !37
  %9 = icmp sgt i64 %8, 4294967295
  br i1 %9, label %10, label %18

10:                                               ; preds = %7
  %11 = load ptr, ptr %4, align 8, !tbaa !59
  %12 = load ptr, ptr %5, align 8, !tbaa !56
  %13 = call zeroext i8 @python_hashlib_Hacl_Hash_SHA3_update(ptr noundef %11, ptr noundef %12, i32 noundef -1)
  %14 = load i64, ptr %6, align 8, !tbaa !37
  %15 = sub i64 %14, 4294967295
  store i64 %15, ptr %6, align 8, !tbaa !37
  %16 = load ptr, ptr %5, align 8, !tbaa !56
  %17 = getelementptr i8, ptr %16, i64 4294967295
  store ptr %17, ptr %5, align 8, !tbaa !56
  br label %7, !llvm.loop !60

18:                                               ; preds = %7
  %19 = load ptr, ptr %4, align 8, !tbaa !59
  %20 = load ptr, ptr %5, align 8, !tbaa !56
  %21 = load i64, ptr %6, align 8, !tbaa !37
  %22 = trunc i64 %21 to i32
  %23 = call zeroext i8 @python_hashlib_Hacl_Hash_SHA3_update(ptr noundef %19, ptr noundef %20, i32 noundef %22)
  ret void
}

; Function Attrs: inlinehint nounwind uwtable
define internal void @_PyMutex_Lock(ptr noundef %0) #3 {
  %2 = alloca ptr, align 8
  %3 = alloca i8, align 1
  store ptr %0, ptr %2, align 8, !tbaa !54
  call void @llvm.lifetime.start.p0(i64 1, ptr %3) #7
  store i8 0, ptr %3, align 1, !tbaa !41
  %4 = load ptr, ptr %2, align 8, !tbaa !54
  %5 = getelementptr inbounds nuw %struct.PyMutex, ptr %4, i32 0, i32 0
  %6 = call i32 @_Py_atomic_compare_exchange_uint8(ptr noundef %5, ptr noundef %3, i8 noundef zeroext 1)
  %7 = icmp ne i32 %6, 0
  br i1 %7, label %10, label %8

8:                                                ; preds = %1
  %9 = load ptr, ptr %2, align 8, !tbaa !54
  call void @PyMutex_Lock(ptr noundef %9)
  br label %10

10:                                               ; preds = %8, %1
  call void @llvm.lifetime.end.p0(i64 1, ptr %3) #7
  ret void
}

; Function Attrs: inlinehint nounwind uwtable
define internal i32 @PyType_HasFeature(ptr noundef %0, i64 noundef %1) #3 {
  %3 = alloca ptr, align 8
  %4 = alloca i64, align 8
  %5 = alloca i64, align 8
  store ptr %0, ptr %3, align 8, !tbaa !21
  store i64 %1, ptr %4, align 8, !tbaa !37
  call void @llvm.lifetime.start.p0(i64 8, ptr %5) #7
  %6 = load ptr, ptr %3, align 8, !tbaa !21
  %7 = getelementptr inbounds nuw %struct._typeobject, ptr %6, i32 0, i32 19
  %8 = load i64, ptr %7, align 8, !tbaa !58
  store i64 %8, ptr %5, align 8, !tbaa !37
  %9 = load i64, ptr %5, align 8, !tbaa !37
  %10 = load i64, ptr %4, align 8, !tbaa !37
  %11 = and i64 %9, %10
  %12 = icmp ne i64 %11, 0
  %13 = zext i1 %12 to i32
  call void @llvm.lifetime.end.p0(i64 8, ptr %5) #7
  ret i32 %13
}

; Function Attrs: inlinehint nounwind uwtable
define internal ptr @_Py_TYPE(ptr noundef %0) #3 {
  %2 = alloca ptr, align 8
  store ptr %0, ptr %2, align 8, !tbaa !3
  %3 = load ptr, ptr %2, align 8, !tbaa !3
  %4 = getelementptr inbounds nuw %struct._object, ptr %3, i32 0, i32 1
  %5 = load ptr, ptr %4, align 8, !tbaa !40
  ret ptr %5
}

; Function Attrs: nounwind uwtable
define internal ptr @_sha3_sha3_224_update(ptr noundef %0, ptr noundef %1) #0 {
  %3 = alloca ptr, align 8
  %4 = alloca ptr, align 8
  %5 = alloca ptr, align 8
  %6 = alloca %struct.Py_buffer, align 8
  %7 = alloca i32, align 4
  %8 = alloca ptr, align 8
  store ptr %0, ptr %4, align 8, !tbaa !8
  store ptr %1, ptr %5, align 8, !tbaa !3
  call void @llvm.lifetime.start.p0(i64 80, ptr %6) #7
  br label %9

9:                                                ; preds = %2
  %10 = load ptr, ptr %5, align 8, !tbaa !3
  %11 = call ptr @_Py_TYPE(ptr noundef %10)
  %12 = call i32 @PyType_HasFeature(ptr noundef %11, i64 noundef 268435456)
  %13 = icmp ne i32 %12, 0
  br i1 %13, label %14, label %16

14:                                               ; preds = %9
  %15 = load ptr, ptr @PyExc_TypeError, align 8, !tbaa !3
  call void @PyErr_SetString(ptr noundef %15, ptr noundef @.str.12)
  store ptr null, ptr %3, align 8
  store i32 1, ptr %7, align 4
  br label %75

16:                                               ; preds = %9
  %17 = load ptr, ptr %5, align 8, !tbaa !3
  %18 = call i32 @PyObject_CheckBuffer(ptr noundef %17)
  %19 = icmp ne i32 %18, 0
  br i1 %19, label %22, label %20

20:                                               ; preds = %16
  %21 = load ptr, ptr @PyExc_TypeError, align 8, !tbaa !3
  call void @PyErr_SetString(ptr noundef %21, ptr noundef @.str.13)
  store ptr null, ptr %3, align 8
  store i32 1, ptr %7, align 4
  br label %75

22:                                               ; preds = %16
  %23 = load ptr, ptr %5, align 8, !tbaa !3
  %24 = call i32 @PyObject_GetBuffer(ptr noundef %23, ptr noundef %6, i32 noundef 0)
  %25 = icmp eq i32 %24, -1
  br i1 %25, label %26, label %27

26:                                               ; preds = %22
  store ptr null, ptr %3, align 8
  store i32 1, ptr %7, align 4
  br label %75

27:                                               ; preds = %22
  %28 = getelementptr inbounds nuw %struct.Py_buffer, ptr %6, i32 0, i32 5
  %29 = load i32, ptr %28, align 4, !tbaa !42
  %30 = icmp sgt i32 %29, 1
  br i1 %30, label %31, label %33

31:                                               ; preds = %27
  %32 = load ptr, ptr @PyExc_BufferError, align 8, !tbaa !3
  call void @PyErr_SetString(ptr noundef %32, ptr noundef @.str.14)
  call void @PyBuffer_Release(ptr noundef %6)
  store ptr null, ptr %3, align 8
  store i32 1, ptr %7, align 4
  br label %75

33:                                               ; preds = %27
  br label %34

34:                                               ; preds = %33
  br label %35

35:                                               ; preds = %34
  %36 = load ptr, ptr %4, align 8, !tbaa !8
  %37 = getelementptr inbounds nuw %struct.SHA3object, ptr %36, i32 0, i32 1
  %38 = load i8, ptr %37, align 8, !tbaa !45, !range !46, !noundef !47
  %39 = trunc i8 %38 to i1
  br i1 %39, label %47, label %40

40:                                               ; preds = %35
  %41 = getelementptr inbounds nuw %struct.Py_buffer, ptr %6, i32 0, i32 2
  %42 = load i64, ptr %41, align 8, !tbaa !48
  %43 = icmp sge i64 %42, 2048
  br i1 %43, label %44, label %47

44:                                               ; preds = %40
  %45 = load ptr, ptr %4, align 8, !tbaa !8
  %46 = getelementptr inbounds nuw %struct.SHA3object, ptr %45, i32 0, i32 1
  store i8 1, ptr %46, align 8, !tbaa !45
  br label %47

47:                                               ; preds = %44, %40, %35
  %48 = load ptr, ptr %4, align 8, !tbaa !8
  %49 = getelementptr inbounds nuw %struct.SHA3object, ptr %48, i32 0, i32 1
  %50 = load i8, ptr %49, align 8, !tbaa !45, !range !46, !noundef !47
  %51 = trunc i8 %50 to i1
  br i1 %51, label %52, label %66

52:                                               ; preds = %47
  call void @llvm.lifetime.start.p0(i64 8, ptr %8) #7
  %53 = call ptr @PyEval_SaveThread()
  store ptr %53, ptr %8, align 8, !tbaa !49
  %54 = load ptr, ptr %4, align 8, !tbaa !8
  %55 = getelementptr inbounds nuw %struct.SHA3object, ptr %54, i32 0, i32 2
  call void @_PyMutex_Lock(ptr noundef %55)
  %56 = load ptr, ptr %4, align 8, !tbaa !8
  %57 = getelementptr inbounds nuw %struct.SHA3object, ptr %56, i32 0, i32 3
  %58 = load ptr, ptr %57, align 8, !tbaa !22
  %59 = getelementptr inbounds nuw %struct.Py_buffer, ptr %6, i32 0, i32 0
  %60 = load ptr, ptr %59, align 8, !tbaa !51
  %61 = getelementptr inbounds nuw %struct.Py_buffer, ptr %6, i32 0, i32 2
  %62 = load i64, ptr %61, align 8, !tbaa !48
  call void @sha3_update(ptr noundef %58, ptr noundef %60, i64 noundef %62)
  %63 = load ptr, ptr %4, align 8, !tbaa !8
  %64 = getelementptr inbounds nuw %struct.SHA3object, ptr %63, i32 0, i32 2
  call void @_PyMutex_Unlock(ptr noundef %64)
  %65 = load ptr, ptr %8, align 8, !tbaa !49
  call void @PyEval_RestoreThread(ptr noundef %65)
  call void @llvm.lifetime.end.p0(i64 8, ptr %8) #7
  br label %74

66:                                               ; preds = %47
  %67 = load ptr, ptr %4, align 8, !tbaa !8
  %68 = getelementptr inbounds nuw %struct.SHA3object, ptr %67, i32 0, i32 3
  %69 = load ptr, ptr %68, align 8, !tbaa !22
  %70 = getelementptr inbounds nuw %struct.Py_buffer, ptr %6, i32 0, i32 0
  %71 = load ptr, ptr %70, align 8, !tbaa !51
  %72 = getelementptr inbounds nuw %struct.Py_buffer, ptr %6, i32 0, i32 2
  %73 = load i64, ptr %72, align 8, !tbaa !48
  call void @sha3_update(ptr noundef %69, ptr noundef %71, i64 noundef %73)
  br label %74

74:                                               ; preds = %66, %52
  call void @PyBuffer_Release(ptr noundef %6)
  store ptr @_Py_NoneStruct, ptr %3, align 8
  store i32 1, ptr %7, align 4
  br label %75

75:                                               ; preds = %74, %31, %26, %20, %14
  call void @llvm.lifetime.end.p0(i64 80, ptr %6) #7
  %76 = load ptr, ptr %3, align 8
  ret ptr %76
}