; Function Attrs: nounwind uwtable
define internal noundef ptr @_sha3_sha3_224_update(ptr noundef %0, ptr noundef %1) #0 {
  %3 = alloca %struct.Py_buffer, align 8
  call void @llvm.lifetime.start.p0(i64 80, ptr nonnull %3) #4
  %4 = getelementptr i8, ptr %1, i64 8
  %.val = load ptr, ptr %4, align 8, !tbaa !22
  %5 = getelementptr i8, ptr %.val, i64 168
  %.val17 = load i64, ptr %5, align 8, !tbaa !52
  %6 = and i64 %.val17, 268435456
  %.not14 = icmp eq i64 %6, 0
  br i1 %.not14, label %9, label %7

7:                                                ; preds = %2
  %8 = load ptr, ptr @PyExc_TypeError, align 8, !tbaa !39
  tail call void @PyErr_SetString(ptr noundef %8, ptr noundef nonnull @.str.12) #4
  br label %63

9:                                                ; preds = %2
  %10 = tail call i32 @PyObject_CheckBuffer(ptr noundef nonnull %1) #4
  %.not15 = icmp eq i32 %10, 0
  br i1 %.not15, label %11, label %13

11:                                               ; preds = %9
  %12 = load ptr, ptr @PyExc_TypeError, align 8, !tbaa !39
  tail call void @PyErr_SetString(ptr noundef %12, ptr noundef nonnull @.str.13) #4
  br label %63

13:                                               ; preds = %9
  %14 = call i32 @PyObject_GetBuffer(ptr noundef nonnull %1, ptr noundef nonnull %3, i32 noundef 0) #4
  %15 = icmp eq i32 %14, -1
  br i1 %15, label %63, label %16

16:                                               ; preds = %13
  %17 = getelementptr inbounds nuw i8, ptr %3, i64 36
  %18 = load i32, ptr %17, align 4, !tbaa !53
  %19 = icmp sgt i32 %18, 1
  br i1 %19, label %20, label %22

20:                                               ; preds = %16
  %21 = load ptr, ptr @PyExc_BufferError, align 8, !tbaa !39
  call void @PyErr_SetString(ptr noundef %21, ptr noundef nonnull @.str.14) #4
  call void @PyBuffer_Release(ptr noundef nonnull %3) #4
  br label %63

22:                                               ; preds = %16
  %23 = getelementptr inbounds nuw i8, ptr %0, i64 16
  %24 = load i8, ptr %23, align 8, !tbaa !51, !range !58, !noundef !59
  %25 = trunc nuw i8 %24 to i1
  %26 = getelementptr inbounds nuw i8, ptr %3, i64 16
  %27 = load i64, ptr %26, align 8
  %28 = icmp slt i64 %27, 2048
  %or.cond.not = select i1 %25, i1 true, i1 %28
  br i1 %or.cond.not, label %29, label %.thread

.thread:                                          ; preds = %22
  store i8 1, ptr %23, align 8, !tbaa !51
  br label %31

29:                                               ; preds = %22
  %30 = trunc nuw i8 %24 to i1
  br i1 %30, label %31, label %51

31:                                               ; preds = %.thread, %29
  %32 = call ptr @PyEval_SaveThread() #4
  %33 = getelementptr inbounds nuw i8, ptr %0, i64 17
  %34 = cmpxchg ptr %33, i8 0, i8 1 seq_cst seq_cst, align 1
  %35 = extractvalue { i8, i1 } %34, 1
  br i1 %35, label %_PyMutex_Lock.exit, label %36

36:                                               ; preds = %31
  call void @PyMutex_Lock(ptr noundef nonnull %33) #4
  br label %_PyMutex_Lock.exit

_PyMutex_Lock.exit:                               ; preds = %31, %36
  %37 = getelementptr inbounds nuw i8, ptr %0, i64 24
  %38 = load ptr, ptr %37, align 8, !tbaa !16
  %39 = load ptr, ptr %3, align 8, !tbaa !57
  %40 = load i64, ptr %26, align 8, !tbaa !56
  %41 = icmp sgt i64 %40, 4294967295
  br i1 %41, label %.lr.ph.i, label %sha3_update.exit

.lr.ph.i:                                         ; preds = %_PyMutex_Lock.exit, %.lr.ph.i
  %.09.i = phi i64 [ %43, %.lr.ph.i ], [ %40, %_PyMutex_Lock.exit ]
  %.078.i = phi ptr [ %44, %.lr.ph.i ], [ %39, %_PyMutex_Lock.exit ]
  %42 = call zeroext i8 @python_hashlib_Hacl_Hash_SHA3_update(ptr noundef %38, ptr noundef %.078.i, i32 noundef -1) #4
  %43 = add nsw i64 %.09.i, -4294967295
  %44 = getelementptr i8, ptr %.078.i, i64 4294967295
  %45 = icmp samesign ugt i64 %.09.i, 8589934590
  br i1 %45, label %.lr.ph.i, label %sha3_update.exit, !llvm.loop !60

sha3_update.exit:                                 ; preds = %.lr.ph.i, %_PyMutex_Lock.exit
  %.07.lcssa.i = phi ptr [ %39, %_PyMutex_Lock.exit ], [ %44, %.lr.ph.i ]
  %.0.lcssa.i = phi i64 [ %40, %_PyMutex_Lock.exit ], [ %43, %.lr.ph.i ]
  %46 = trunc i64 %.0.lcssa.i to i32
  %47 = call zeroext i8 @python_hashlib_Hacl_Hash_SHA3_update(ptr noundef %38, ptr noundef %.07.lcssa.i, i32 noundef %46) #4
  %48 = cmpxchg ptr %33, i8 1, i8 0 seq_cst seq_cst, align 1
  %49 = extractvalue { i8, i1 } %48, 1
  br i1 %49, label %_PyMutex_Unlock.exit, label %50

50:                                               ; preds = %sha3_update.exit
  call void @PyMutex_Unlock(ptr noundef nonnull %33) #4
  br label %_PyMutex_Unlock.exit

_PyMutex_Unlock.exit:                             ; preds = %sha3_update.exit, %50
  call void @PyEval_RestoreThread(ptr noundef %32) #4
  br label %62

51:                                               ; preds = %29
  %52 = getelementptr inbounds nuw i8, ptr %0, i64 24
  %53 = load ptr, ptr %52, align 8, !tbaa !16
  %54 = load ptr, ptr %3, align 8, !tbaa !57
  %55 = icmp sgt i64 %27, 4294967295
  br i1 %55, label %.lr.ph.i20, label %sha3_update.exit23

.lr.ph.i20:                                       ; preds = %51, %.lr.ph.i20
  %.09.i21 = phi i64 [ %57, %.lr.ph.i20 ], [ %27, %51 ]
  %.078.i22 = phi ptr [ %58, %.lr.ph.i20 ], [ %54, %51 ]
  %56 = call zeroext i8 @python_hashlib_Hacl_Hash_SHA3_update(ptr noundef %53, ptr noundef %.078.i22, i32 noundef -1) #4
  %57 = add nsw i64 %.09.i21, -4294967295
  %58 = getelementptr i8, ptr %.078.i22, i64 4294967295
  %59 = icmp samesign ugt i64 %.09.i21, 8589934590
  br i1 %59, label %.lr.ph.i20, label %sha3_update.exit23, !llvm.loop !60

sha3_update.exit23:                               ; preds = %.lr.ph.i20, %51
  %.07.lcssa.i18 = phi ptr [ %54, %51 ], [ %58, %.lr.ph.i20 ]
  %.0.lcssa.i19 = phi i64 [ %27, %51 ], [ %57, %.lr.ph.i20 ]
  %60 = trunc i64 %.0.lcssa.i19 to i32
  %61 = call zeroext i8 @python_hashlib_Hacl_Hash_SHA3_update(ptr noundef %53, ptr noundef %.07.lcssa.i18, i32 noundef %60) #4
  br label %62

62:                                               ; preds = %sha3_update.exit23, %_PyMutex_Unlock.exit
  call void @PyBuffer_Release(ptr noundef nonnull %3) #4
  br label %63

63:                                               ; preds = %13, %62, %20, %11, %7
  %.0 = phi ptr [ null, %7 ], [ null, %20 ], [ @_Py_NoneStruct, %62 ], [ null, %11 ], [ null, %13 ]
  call void @llvm.lifetime.end.p0(i64 80, ptr nonnull %3) #4
  ret ptr %.0
}